target datalayout = "e-m:e-p270:32:32-p271:32:32-p272:64:64-i64:64-i128:128-f80:128-n8:16:32:64-S128"
target triple = "x86_64-pc-linux-gnu"

%struct.date_mode = type { i32, i32, ptr }
%struct.string_list = type { ptr, i64, i64, i8, ptr }
%struct.shortlog = type { %struct.string_list, i32, i32, i32, i32, i32, i32, i32, i32, %struct.date_mode, i32, %struct.string_list, %struct.string_list, i32, %struct.string_list, ptr }
%struct.option = type { i32, i32, ptr, ptr, ptr, ptr, i32, ptr, i64, ptr, i64, ptr }

@wrap_arg_usage = internal constant [36 x i8] c"-w[<width>[,<indent1>[,<indent2>]]]\00", align 16

; Function Attrs: inlinehint nounwind uwtable
define internal i32 @const_error() #5 {
  ret i32 -1
}

; Function Attrs: nounwind uwtable
define internal i32 @parse_uint(ptr noundef %0, i32 noundef %1, i32 noundef %2) #0 {
  %4 = alloca i32, align 4
  %5 = alloca ptr, align 8
  %6 = alloca i32, align 4
  %7 = alloca i32, align 4
  %8 = alloca i64, align 8
  %9 = alloca i32, align 4
  %10 = alloca ptr, align 8
  %11 = alloca i32, align 4
  store ptr %0, ptr %5, align 8, !tbaa !63
  store i32 %1, ptr %6, align 4, !tbaa !29
  store i32 %2, ptr %7, align 4, !tbaa !29
  call void @llvm.lifetime.start.p0(i64 8, ptr %8) #10
  call void @llvm.lifetime.start.p0(i64 4, ptr %9) #10
  call void @llvm.lifetime.start.p0(i64 8, ptr %10) #10
  %12 = load ptr, ptr %5, align 8, !tbaa !63
  %13 = load ptr, ptr %12, align 8, !tbaa !30
  %14 = call i64 @strtoul(ptr noundef %13, ptr noundef %10, i32 noundef 10) #10
  store i64 %14, ptr %8, align 8, !tbaa !157
  %15 = load ptr, ptr %10, align 8, !tbaa !30
  %16 = load i8, ptr %15, align 1, !tbaa !148
  %17 = sext i8 %16 to i32
  %18 = icmp ne i32 %17, 0
  br i1 %18, label %19, label %26

19:                                               ; preds = %3
  %20 = load ptr, ptr %10, align 8, !tbaa !30
  %21 = load i8, ptr %20, align 1, !tbaa !148
  %22 = sext i8 %21 to i32
  %23 = load i32, ptr %6, align 4, !tbaa !29
  %24 = icmp ne i32 %22, %23
  br i1 %24, label %25, label %26

25:                                               ; preds = %19
  store i32 -1, ptr %4, align 4
  store i32 1, ptr %11, align 4
  br label %55

26:                                               ; preds = %19, %3
  %27 = load i64, ptr %8, align 8, !tbaa !157
  %28 = icmp ugt i64 %27, 2147483647
  br i1 %28, label %29, label %30

29:                                               ; preds = %26
  store i32 -1, ptr %4, align 4
  store i32 1, ptr %11, align 4
  br label %55

30:                                               ; preds = %26
  %31 = load ptr, ptr %5, align 8, !tbaa !63
  %32 = load ptr, ptr %31, align 8, !tbaa !30
  %33 = load ptr, ptr %10, align 8, !tbaa !30
  %34 = icmp eq ptr %32, %33
  br i1 %34, label %35, label %37

35:                                               ; preds = %30
  %36 = load i32, ptr %7, align 4, !tbaa !29
  br label %40

37:                                               ; preds = %30
  %38 = load i64, ptr %8, align 8, !tbaa !157
  %39 = trunc i64 %38 to i32
  br label %40

40:                                               ; preds = %37, %35
  %41 = phi i32 [ %36, %35 ], [ %39, %37 ]
  store i32 %41, ptr %9, align 4, !tbaa !29
  %42 = load ptr, ptr %10, align 8, !tbaa !30
  %43 = load i8, ptr %42, align 1, !tbaa !148
  %44 = sext i8 %43 to i32
  %45 = icmp ne i32 %44, 0
  br i1 %45, label %46, label %49

46:                                               ; preds = %40
  %47 = load ptr, ptr %10, align 8, !tbaa !30
  %48 = getelementptr inbounds i8, ptr %47, i64 1
  br label %51

49:                                               ; preds = %40
  %50 = load ptr, ptr %10, align 8, !tbaa !30
  br label %51

51:                                               ; preds = %49, %46
  %52 = phi ptr [ %48, %46 ], [ %50, %49 ]
  %53 = load ptr, ptr %5, align 8, !tbaa !63
  store ptr %52, ptr %53, align 8, !tbaa !30
  %54 = load i32, ptr %9, align 4, !tbaa !29
  store i32 %54, ptr %4, align 4
  store i32 1, ptr %11, align 4
  br label %55

55:                                               ; preds = %51, %29, %25
  call void @llvm.lifetime.end.p0(i64 8, ptr %10) #10
  call void @llvm.lifetime.end.p0(i64 4, ptr %9) #10
  call void @llvm.lifetime.end.p0(i64 8, ptr %8) #10
  %56 = load i32, ptr %4, align 4
  ret i32 %56
}

; Function Attrs: nounwind uwtable
define internal i32 @parse_wrap_args(ptr noundef %0, ptr noundef %1, i32 noundef %2) #0 {
  %4 = alloca i32, align 4
  %5 = alloca ptr, align 8
  %6 = alloca ptr, align 8
  %7 = alloca i32, align 4
  %8 = alloca ptr, align 8
  %9 = alloca i32, align 4
  store ptr %0, ptr %5, align 8, !tbaa !144
  store ptr %1, ptr %6, align 8, !tbaa !30
  store i32 %2, ptr %7, align 4, !tbaa !29
  call void @llvm.lifetime.start.p0(i64 8, ptr %8) #10
  %10 = load ptr, ptr %5, align 8, !tbaa !144
  %11 = getelementptr inbounds nuw %struct.option, ptr %10, i32 0, i32 3
  %12 = load ptr, ptr %11, align 8, !tbaa !73
  store ptr %12, ptr %8, align 8, !tbaa !4
  %13 = load i32, ptr %7, align 4, !tbaa !29
  %14 = icmp ne i32 %13, 0
  %15 = xor i1 %14, true
  %16 = zext i1 %15 to i32
  %17 = load ptr, ptr %8, align 8, !tbaa !4
  %18 = getelementptr inbounds nuw %struct.shortlog, ptr %17, i32 0, i32 2
  store i32 %16, ptr %18, align 4, !tbaa !146
  %19 = load i32, ptr %7, align 4, !tbaa !29
  %20 = icmp ne i32 %19, 0
  br i1 %20, label %21, label %22

21:                                               ; preds = %3
  store i32 0, ptr %4, align 4
  store i32 1, ptr %9, align 4
  br label %94

22:                                               ; preds = %3
  %23 = load ptr, ptr %6, align 8, !tbaa !30
  %24 = icmp ne ptr %23, null
  br i1 %24, label %32, label %25

25:                                               ; preds = %22
  %26 = load ptr, ptr %8, align 8, !tbaa !4
  %27 = getelementptr inbounds nuw %struct.shortlog, ptr %26, i32 0, i32 4
  store i32 76, ptr %27, align 4, !tbaa !57
  %28 = load ptr, ptr %8, align 8, !tbaa !4
  %29 = getelementptr inbounds nuw %struct.shortlog, ptr %28, i32 0, i32 5
  store i32 6, ptr %29, align 8, !tbaa !58
  %30 = load ptr, ptr %8, align 8, !tbaa !4
  %31 = getelementptr inbounds nuw %struct.shortlog, ptr %30, i32 0, i32 6
  store i32 9, ptr %31, align 4, !tbaa !59
  store i32 0, ptr %4, align 4
  store i32 1, ptr %9, align 4
  br label %94

32:                                               ; preds = %22
  %33 = call i32 @parse_uint(ptr noundef %6, i32 noundef 44, i32 noundef 76)
  %34 = load ptr, ptr %8, align 8, !tbaa !4
  %35 = getelementptr inbounds nuw %struct.shortlog, ptr %34, i32 0, i32 4
  store i32 %33, ptr %35, align 4, !tbaa !57
  %36 = call i32 @parse_uint(ptr noundef %6, i32 noundef 44, i32 noundef 6)
  %37 = load ptr, ptr %8, align 8, !tbaa !4
  %38 = getelementptr inbounds nuw %struct.shortlog, ptr %37, i32 0, i32 5
  store i32 %36, ptr %38, align 8, !tbaa !58
  %39 = call i32 @parse_uint(ptr noundef %6, i32 noundef 0, i32 noundef 9)
  %40 = load ptr, ptr %8, align 8, !tbaa !4
  %41 = getelementptr inbounds nuw %struct.shortlog, ptr %40, i32 0, i32 6
  store i32 %39, ptr %41, align 4, !tbaa !59
  %42 = load ptr, ptr %8, align 8, !tbaa !4
  %43 = getelementptr inbounds nuw %struct.shortlog, ptr %42, i32 0, i32 4
  %44 = load i32, ptr %43, align 4, !tbaa !57
  %45 = icmp slt i32 %44, 0
  br i1 %45, label %56, label %46

46:                                               ; preds = %32
  %47 = load ptr, ptr %8, align 8, !tbaa !4
  %48 = getelementptr inbounds nuw %struct.shortlog, ptr %47, i32 0, i32 5
  %49 = load i32, ptr %48, align 8, !tbaa !58
  %50 = icmp slt i32 %49, 0
  br i1 %50, label %56, label %51

51:                                               ; preds = %46
  %52 = load ptr, ptr %8, align 8, !tbaa !4
  %53 = getelementptr inbounds nuw %struct.shortlog, ptr %52, i32 0, i32 6
  %54 = load i32, ptr %53, align 4, !tbaa !59
  %55 = icmp slt i32 %54, 0
  br i1 %55, label %56, label %59

56:                                               ; preds = %51, %46, %32
  %57 = call i32 (ptr, ...) @error(ptr noundef @wrap_arg_usage)
  %58 = call i32 @const_error()
  store i32 %58, ptr %4, align 4
  store i32 1, ptr %9, align 4
  br label %94

59:                                               ; preds = %51
  %60 = load ptr, ptr %8, align 8, !tbaa !4
  %61 = getelementptr inbounds nuw %struct.shortlog, ptr %60, i32 0, i32 4
  %62 = load i32, ptr %61, align 4, !tbaa !57
  %63 = icmp ne i32 %62, 0
  br i1 %63, label %64, label %93

64:                                               ; preds = %59
  %65 = load ptr, ptr %8, align 8, !tbaa !4
  %66 = getelementptr inbounds nuw %struct.shortlog, ptr %65, i32 0, i32 5
  %67 = load i32, ptr %66, align 8, !tbaa !58
  %68 = icmp ne i32 %67, 0
  br i1 %68, label %69, label %77

69:                                               ; preds = %64
  %70 = load ptr, ptr %8, align 8, !tbaa !4
  %71 = getelementptr inbounds nuw %struct.shortlog, ptr %70, i32 0, i32 4
  %72 = load i32, ptr %71, align 4, !tbaa !57
  %73 = load ptr, ptr %8, align 8, !tbaa !4
  %74 = getelementptr inbounds nuw %struct.shortlog, ptr %73, i32 0, i32 5
  %75 = load i32, ptr %74, align 8, !tbaa !58
  %76 = icmp sle i32 %72, %75
  br i1 %76, label %90, label %77

77:                                               ; preds = %69, %64
  %78 = load ptr, ptr %8, align 8, !tbaa !4
  %79 = getelementptr inbounds nuw %struct.shortlog, ptr %78, i32 0, i32 6
  %80 = load i32, ptr %79, align 4, !tbaa !59
  %81 = icmp ne i32 %80, 0
  br i1 %81, label %82, label %93

82:                                               ; preds = %77
  %83 = load ptr, ptr %8, align 8, !tbaa !4
  %84 = getelementptr inbounds nuw %struct.shortlog, ptr %83, i32 0, i32 4
  %85 = load i32, ptr %84, align 4, !tbaa !57
  %86 = load ptr, ptr %8, align 8, !tbaa !4
  %87 = getelementptr inbounds nuw %struct.shortlog, ptr %86, i32 0, i32 6
  %88 = load i32, ptr %87, align 4, !tbaa !59
  %89 = icmp sle i32 %85, %88
  br i1 %89, label %90, label %93

90:                                               ; preds = %82, %69
  %91 = call i32 (ptr, ...) @error(ptr noundef @wrap_arg_usage)
  %92 = call i32 @const_error()
  store i32 %92, ptr %4, align 4
  store i32 1, ptr %9, align 4
  br label %94

93:                                               ; preds = %82, %77, %59
  store i32 0, ptr %4, align 4
  store i32 1, ptr %9, align 4
  br label %94

94:                                               ; preds = %93, %90, %56, %25, %21
  call void @llvm.lifetime.end.p0(i64 8, ptr %8) #10
  %95 = load i32, ptr %4, align 4
  ret i32 %95
}