; Function Attrs: nounwind uwtable
define internal range(i32 -1, 1) i32 @parse_wrap_args(ptr noundef readonly captures(none) %0, ptr noundef %1, i32 noundef %2) #0 {
  %4 = alloca ptr, align 8
  %5 = alloca ptr, align 8
  %6 = alloca ptr, align 8
  %7 = getelementptr inbounds nuw i8, ptr %0, i64 16
  %8 = load ptr, ptr %7, align 8, !tbaa !62
  %.not = icmp eq i32 %2, 0
  %9 = zext i1 %.not to i32
  %10 = getelementptr inbounds nuw i8, ptr %8, i64 44
  store i32 %9, ptr %10, align 4, !tbaa !136
  br i1 %.not, label %11, label %55

11:                                               ; preds = %3
  %.not23 = icmp eq ptr %1, null
  br i1 %.not23, label %12, label %parse_uint.exit

12:                                               ; preds = %11
  %13 = getelementptr inbounds nuw i8, ptr %8, i64 52
  store i32 76, ptr %13, align 4, !tbaa !49
  %14 = getelementptr inbounds nuw i8, ptr %8, i64 56
  store i32 6, ptr %14, align 8, !tbaa !50
  %15 = getelementptr inbounds nuw i8, ptr %8, i64 60
  store i32 9, ptr %15, align 4, !tbaa !51
  br label %55

parse_uint.exit:                                  ; preds = %11
  call void @llvm.lifetime.start.p0(i64 8, ptr nonnull %6) #17
  %16 = call i64 @strtoul(ptr noundef nonnull %1, ptr noundef nonnull %6, i32 noundef 10) #17
  %17 = load ptr, ptr %6, align 8, !tbaa !26
  %18 = load i8, ptr %17, align 1, !tbaa !43
  %.not.i = icmp ne i8 %18, 0
  %.not10.i = icmp ne i8 %18, 44
  %or.cond.not13.i = and i1 %.not.i, %.not10.i
  %19 = icmp ugt i64 %16, 2147483647
  %or.cond12.i = select i1 %or.cond.not13.i, i1 true, i1 %19
  %20 = icmp eq ptr %1, %17
  %21 = trunc nuw nsw i64 %16 to i32
  %22 = select i1 %20, i32 76, i32 %21
  %.idx.i = zext i1 %.not.i to i64
  %23 = getelementptr inbounds nuw i8, ptr %17, i64 %.idx.i
  %.050 = select i1 %or.cond12.i, ptr %1, ptr %23
  %.0.i = select i1 %or.cond12.i, i32 -1, i32 %22
  call void @llvm.lifetime.end.p0(i64 8, ptr nonnull %6) #17
  %24 = getelementptr inbounds nuw i8, ptr %8, i64 52
  store i32 %.0.i, ptr %24, align 4, !tbaa !49
  call void @llvm.lifetime.start.p0(i64 8, ptr nonnull %5) #17
  %25 = call i64 @strtoul(ptr noundef nonnull %.050, ptr noundef nonnull %5, i32 noundef 10) #17
  %26 = load ptr, ptr %5, align 8, !tbaa !26
  %27 = load i8, ptr %26, align 1, !tbaa !43
  %.not.i30 = icmp ne i8 %27, 0
  %.not10.i31 = icmp ne i8 %27, 44
  %or.cond.not13.i32 = and i1 %.not.i30, %.not10.i31
  %28 = icmp ugt i64 %25, 2147483647
  %or.cond12.i33 = select i1 %or.cond.not13.i32, i1 true, i1 %28
  %29 = icmp eq ptr %.050, %26
  %30 = trunc nuw nsw i64 %25 to i32
  %31 = select i1 %29, i32 6, i32 %30
  %.idx.i34 = zext i1 %.not.i30 to i64
  %32 = getelementptr inbounds nuw i8, ptr %26, i64 %.idx.i34
  %.1 = select i1 %or.cond12.i33, ptr %.050, ptr %32
  %.0.i35 = select i1 %or.cond12.i33, i32 -1, i32 %31
  call void @llvm.lifetime.end.p0(i64 8, ptr nonnull %5) #17
  %33 = getelementptr inbounds nuw i8, ptr %8, i64 56
  store i32 %.0.i35, ptr %33, align 8, !tbaa !50
  call void @llvm.lifetime.start.p0(i64 8, ptr nonnull %4) #17
  %34 = call i64 @strtoul(ptr noundef nonnull %.1, ptr noundef nonnull %4, i32 noundef 10) #17
  %35 = load ptr, ptr %4, align 8, !tbaa !26
  %36 = load i8, ptr %35, align 1, !tbaa !43
  %.not10.i38 = icmp ne i8 %36, 0
  %37 = icmp ugt i64 %34, 2147483647
  %or.cond12.i40 = select i1 %.not10.i38, i1 true, i1 %37
  %38 = icmp eq ptr %.1, %35
  %39 = trunc nuw nsw i64 %34 to i32
  %40 = select i1 %38, i32 9, i32 %39
  %.0.i42 = select i1 %or.cond12.i40, i32 -1, i32 %40
  call void @llvm.lifetime.end.p0(i64 8, ptr nonnull %4) #17
  %41 = getelementptr inbounds nuw i8, ptr %8, i64 60
  store i32 %.0.i42, ptr %41, align 4, !tbaa !51
  %42 = load i32, ptr %24, align 4, !tbaa !49
  %43 = icmp slt i32 %42, 0
  br i1 %43, label %48, label %44

44:                                               ; preds = %parse_uint.exit
  %45 = load i32, ptr %33, align 8, !tbaa !50
  %46 = icmp slt i32 %45, 0
  %47 = icmp slt i32 %.0.i42, 0
  %or.cond = select i1 %46, i1 true, i1 %47
  br i1 %or.cond, label %48, label %50

48:                                               ; preds = %44, %parse_uint.exit
  %49 = tail call i32 (ptr, ...) @error(ptr noundef nonnull @wrap_arg_usage) #17
  br label %55

50:                                               ; preds = %44
  %.not24 = icmp eq i32 %42, 0
  br i1 %.not24, label %55, label %51

51:                                               ; preds = %50
  %.not26 = icmp samesign ugt i32 %42, %45
  br i1 %.not26, label %52, label %53

52:                                               ; preds = %51
  %.not27 = icmp eq i32 %.0.i42, 0
  %.not28 = icmp samesign ugt i32 %42, %.0.i42
  %or.cond51 = select i1 %.not27, i1 true, i1 %.not28
  br i1 %or.cond51, label %55, label %53

53:                                               ; preds = %52, %51
  %54 = tail call i32 (ptr, ...) @error(ptr noundef nonnull @wrap_arg_usage) #17
  br label %55

55:                                               ; preds = %50, %52, %3, %53, %48, %12
  %.0 = phi i32 [ -1, %48 ], [ -1, %53 ], [ 0, %12 ], [ 0, %3 ], [ 0, %52 ], [ 0, %50 ]
  ret i32 %.0
}